target datalayout = "e-m:e-p270:32:32-p271:32:32-p272:64:64-i64:64-i128:128-f80:128-n8:16:32:64-S128"
target triple = "x86_64-pc-linux-gnu"

%struct.ossl_namemap_st = type { i8, ptr, ptr, ptr, i32 }

; Function Attrs: inlinehint nounwind uwtable
define internal ptr @ossl_check_const_OPENSSL_STRING_sk_type(ptr noundef %0) #3 {
  %2 = alloca ptr, align 8
  store ptr %0, ptr %2, align 8, !tbaa !22
  %3 = load ptr, ptr %2, align 8, !tbaa !22
  ret ptr %3
}

; Function Attrs: inlinehint nounwind uwtable
define internal ptr @sk_NAMES_value(ptr noundef %0, i32 noundef %1) #3 {
  %3 = alloca ptr, align 8
  %4 = alloca i32, align 4
  store ptr %0, ptr %3, align 8, !tbaa !26
  store i32 %1, ptr %4, align 4, !tbaa !21
  %5 = load ptr, ptr %3, align 8, !tbaa !26
  %6 = load i32, ptr %4, align 4, !tbaa !21
  %7 = call ptr @OPENSSL_sk_value(ptr noundef %5, i32 noundef %6)
  ret ptr %7
}

; Function Attrs: nounwind uwtable
define ptr @ossl_namemap_num2name(ptr noundef %0, i32 noundef %1, i64 noundef %2) #0 {
  %4 = alloca ptr, align 8
  %5 = alloca ptr, align 8
  %6 = alloca i32, align 4
  %7 = alloca i64, align 8
  %8 = alloca ptr, align 8
  %9 = alloca ptr, align 8
  %10 = alloca i32, align 4
  store ptr %0, ptr %5, align 8, !tbaa !8
  store i32 %1, ptr %6, align 4, !tbaa !21
  store i64 %2, ptr %7, align 8, !tbaa !40
  call void @llvm.lifetime.start.p0(i64 8, ptr %8) #7
  call void @llvm.lifetime.start.p0(i64 8, ptr %9) #7
  store ptr null, ptr %9, align 8, !tbaa !27
  %11 = load ptr, ptr %5, align 8, !tbaa !8
  %12 = icmp eq ptr %11, null
  br i1 %12, label %16, label %13

13:                                               ; preds = %3
  %14 = load i32, ptr %6, align 4, !tbaa !21
  %15 = icmp sle i32 %14, 0
  br i1 %15, label %16, label %17

16:                                               ; preds = %13, %3
  store ptr null, ptr %4, align 8
  store i32 1, ptr %10, align 4
  br label %45

17:                                               ; preds = %13
  %18 = load ptr, ptr %5, align 8, !tbaa !8
  %19 = getelementptr inbounds nuw %struct.ossl_namemap_st, ptr %18, i32 0, i32 2
  %20 = load ptr, ptr %19, align 8, !tbaa !14
  %21 = call i32 @CRYPTO_THREAD_read_lock(ptr noundef %20)
  %22 = icmp ne i32 %21, 0
  br i1 %22, label %24, label %23

23:                                               ; preds = %17
  store ptr null, ptr %4, align 8
  store i32 1, ptr %10, align 4
  br label %45

24:                                               ; preds = %17
  %25 = load ptr, ptr %5, align 8, !tbaa !8
  %26 = getelementptr inbounds nuw %struct.ossl_namemap_st, ptr %25, i32 0, i32 3
  %27 = load ptr, ptr %26, align 8, !tbaa !19
  %28 = load i32, ptr %6, align 4, !tbaa !21
  %29 = sub nsw i32 %28, 1
  %30 = call ptr @sk_NAMES_value(ptr noundef %27, i32 noundef %29)
  store ptr %30, ptr %8, align 8, !tbaa !22
  %31 = load ptr, ptr %8, align 8, !tbaa !22
  %32 = icmp ne ptr %31, null
  br i1 %32, label %33, label %39

33:                                               ; preds = %24
  %34 = load ptr, ptr %8, align 8, !tbaa !22
  %35 = call ptr @ossl_check_const_OPENSSL_STRING_sk_type(ptr noundef %34)
  %36 = load i64, ptr %7, align 8, !tbaa !40
  %37 = trunc i64 %36 to i32
  %38 = call ptr @OPENSSL_sk_value(ptr noundef %35, i32 noundef %37)
  store ptr %38, ptr %9, align 8, !tbaa !27
  br label %39

39:                                               ; preds = %33, %24
  %40 = load ptr, ptr %5, align 8, !tbaa !8
  %41 = getelementptr inbounds nuw %struct.ossl_namemap_st, ptr %40, i32 0, i32 2
  %42 = load ptr, ptr %41, align 8, !tbaa !14
  %43 = call i32 @CRYPTO_THREAD_unlock(ptr noundef %42)
  %44 = load ptr, ptr %9, align 8, !tbaa !27
  store ptr %44, ptr %4, align 8
  store i32 1, ptr %10, align 4
  br label %45

45:                                               ; preds = %39, %23, %16
  call void @llvm.lifetime.end.p0(i64 8, ptr %9) #7
  call void @llvm.lifetime.end.p0(i64 8, ptr %8) #7
  %46 = load ptr, ptr %4, align 8
  ret ptr %46
}