; Function Attrs: nounwind uwtable
define ptr @ossl_namemap_num2name(ptr noundef readonly captures(address_is_null) %0, i32 noundef %1, i64 noundef %2) local_unnamed_addr #0 {
  %4 = icmp eq ptr %0, null
  %5 = icmp slt i32 %1, 1
  %or.cond = or i1 %4, %5
  br i1 %or.cond, label %21, label %6

6:                                                ; preds = %3
  %7 = getelementptr inbounds nuw i8, ptr %0, i64 16
  %8 = load ptr, ptr %7, align 8, !tbaa !11
  %9 = tail call i32 @CRYPTO_THREAD_read_lock(ptr noundef %8) #6
  %.not = icmp eq i32 %9, 0
  br i1 %.not, label %21, label %10

10:                                               ; preds = %6
  %11 = getelementptr inbounds nuw i8, ptr %0, i64 24
  %12 = load ptr, ptr %11, align 8, !tbaa !16
  %13 = add nsw i32 %1, -1
  %14 = tail call ptr @OPENSSL_sk_value(ptr noundef %12, i32 noundef range(i32 0, 2147483647) %13) #6
  %.not15 = icmp eq ptr %14, null
  br i1 %.not15, label %18, label %15

15:                                               ; preds = %10
  %16 = trunc i64 %2 to i32
  %17 = tail call ptr @OPENSSL_sk_value(ptr noundef nonnull %14, i32 noundef %16) #6
  br label %18

18:                                               ; preds = %15, %10
  %.0 = phi ptr [ %17, %15 ], [ null, %10 ]
  %19 = load ptr, ptr %7, align 8, !tbaa !11
  %20 = tail call i32 @CRYPTO_THREAD_unlock(ptr noundef %19) #6
  br label %21

21:                                               ; preds = %6, %3, %18
  %.011 = phi ptr [ %.0, %18 ], [ null, %3 ], [ null, %6 ]
  ret ptr %.011
}